target datalayout = "e-m:e-p270:32:32-p271:32:32-p272:64:64-i64:64-i128:128-f80:128-n8:16:32:64-S128"
target triple = "x86_64-pc-linux-gnu"

%"class.icu_77::StringPiece" = type <{ ptr, i32, [4 x i8] }>
%"class.icu_77::CurrencyUnit" = type { %"class.icu_77::MeasureUnit.base", [4 x i16], [4 x i8] }
%"class.icu_77::MeasureUnit.base" = type <{ %"class.icu_77::UObject", ptr, i16, i8 }>
%"class.icu_77::UObject" = type { ptr }

@_ZN6icu_77L16kDefaultCurrencyE = internal constant [4 x i16] [i16 88, i16 88, i16 88, i16 0], align 2

; Function Attrs: mustprogress uwtable
define void @_ZN6icu_7712CurrencyUnitC2Ev(ptr noundef nonnull align 8 dereferenceable(28) %0) unnamed_addr #1 align 2 personality ptr @__gxx_personality_v0 {
  %2 = alloca ptr, align 8
  %3 = alloca ptr, align 8
  %4 = alloca i32, align 4
  %5 = alloca [4 x i8], align 1
  %6 = alloca %"class.icu_77::StringPiece", align 8
  store ptr %0, ptr %2, align 8, !tbaa !23
  %7 = load ptr, ptr %2, align 8
  call void @_ZN6icu_7711MeasureUnitC2Ev(ptr noundef nonnull align 8 dereferenceable(19) %7)
  store ptr getelementptr inbounds inrange(-16, 40) ({ [7 x ptr] }, ptr @_ZTVN6icu_7712CurrencyUnitE, i32 0, i32 0, i32 2), ptr %7, align 8, !tbaa !27
  %8 = getelementptr inbounds nuw %"class.icu_77::CurrencyUnit", ptr %7, i32 0, i32 1
  %9 = getelementptr inbounds [4 x i16], ptr %8, i64 0, i64 0
  %10 = invoke ptr @u_strcpy_77(ptr noundef %9, ptr noundef @_ZN6icu_77L16kDefaultCurrencyE)
          to label %11 unwind label %23

11:                                               ; preds = %1
  call void @llvm.lifetime.start.p0(i64 4, ptr %5) #11
  %12 = getelementptr inbounds nuw %"class.icu_77::CurrencyUnit", ptr %7, i32 0, i32 1
  %13 = getelementptr inbounds [4 x i16], ptr %12, i64 0, i64 0
  %14 = getelementptr inbounds [4 x i8], ptr %5, i64 0, i64 0
  invoke void @u_UCharsToChars_77(ptr noundef %13, ptr noundef %14, i32 noundef 4)
          to label %15 unwind label %27

15:                                               ; preds = %11
  %16 = getelementptr inbounds [4 x i8], ptr %5, i64 0, i64 0
  invoke void @_ZN6icu_7711StringPieceC1EPKc(ptr noundef nonnull align 8 dereferenceable(12) %6, ptr noundef %16)
          to label %17 unwind label %27

17:                                               ; preds = %15
  %18 = getelementptr inbounds nuw { ptr, i32 }, ptr %6, i32 0, i32 0
  %19 = load ptr, ptr %18, align 8
  %20 = getelementptr inbounds nuw { ptr, i32 }, ptr %6, i32 0, i32 1
  %21 = load i32, ptr %20, align 8
  invoke void @_ZN6icu_7711MeasureUnit12initCurrencyENS_11StringPieceE(ptr noundef nonnull align 8 dereferenceable(19) %7, ptr %19, i32 %21)
          to label %22 unwind label %27

22:                                               ; preds = %17
  call void @llvm.lifetime.end.p0(i64 4, ptr %5) #11
  ret void

23:                                               ; preds = %1
  %24 = landingpad { ptr, i32 }
          cleanup
  %25 = extractvalue { ptr, i32 } %24, 0
  store ptr %25, ptr %3, align 8
  %26 = extractvalue { ptr, i32 } %24, 1
  store i32 %26, ptr %4, align 4
  br label %31

27:                                               ; preds = %17, %15, %11
  %28 = landingpad { ptr, i32 }
          cleanup
  %29 = extractvalue { ptr, i32 } %28, 0
  store ptr %29, ptr %3, align 8
  %30 = extractvalue { ptr, i32 } %28, 1
  store i32 %30, ptr %4, align 4
  call void @llvm.lifetime.end.p0(i64 4, ptr %5) #11
  br label %31

31:                                               ; preds = %27, %23
  call void @_ZN6icu_7711MeasureUnitD2Ev(ptr noundef nonnull align 8 dereferenceable(19) %7) #11
  br label %32

32:                                               ; preds = %31
  %33 = load ptr, ptr %3, align 8
  %34 = load i32, ptr %4, align 4
  %35 = insertvalue { ptr, i32 } poison, ptr %33, 0
  %36 = insertvalue { ptr, i32 } %35, i32 %34, 1
  resume { ptr, i32 } %36
}