; Function Attrs: mustprogress uwtable
define void @_ZN6icu_7712CurrencyUnitC2Ev(ptr noundef nonnull align 8 dereferenceable(28) %0) unnamed_addr #1 align 2 personality ptr @__gxx_personality_v0 {
  %2 = alloca [4 x i8], align 1
  %3 = alloca %"class.icu_77::StringPiece", align 8
  tail call void @_ZN6icu_7711MeasureUnitC2Ev(ptr noundef nonnull align 8 dereferenceable(19) %0)
  store ptr getelementptr inbounds nuw inrange(-16, 40) (i8, ptr @_ZTVN6icu_7712CurrencyUnitE, i64 16), ptr %0, align 8, !tbaa !15
  %4 = getelementptr inbounds nuw i8, ptr %0, i64 20
  %5 = invoke ptr @u_strcpy_77(ptr noundef nonnull %4, ptr noundef nonnull @_ZN6icu_77L16kDefaultCurrencyE)
          to label %6 unwind label %13

6:                                                ; preds = %1
  call void @llvm.lifetime.start.p0(i64 4, ptr nonnull %2) #14
  invoke void @u_UCharsToChars_77(ptr noundef nonnull %4, ptr noundef nonnull %2, i32 noundef 4)
          to label %7 unwind label %15

7:                                                ; preds = %6
  invoke void @_ZN6icu_7711StringPieceC1EPKc(ptr noundef nonnull align 8 dereferenceable(12) %3, ptr noundef nonnull %2)
          to label %8 unwind label %15

8:                                                ; preds = %7
  %9 = load ptr, ptr %3, align 8
  %10 = getelementptr inbounds nuw i8, ptr %3, i64 8
  %11 = load i32, ptr %10, align 8
  invoke void @_ZN6icu_7711MeasureUnit12initCurrencyENS_11StringPieceE(ptr noundef nonnull align 8 dereferenceable(19) %0, ptr %9, i32 %11)
          to label %12 unwind label %15

12:                                               ; preds = %8
  call void @llvm.lifetime.end.p0(i64 4, ptr nonnull %2) #14
  ret void

13:                                               ; preds = %1
  %14 = landingpad { ptr, i32 }
          cleanup
  br label %17

15:                                               ; preds = %8, %7, %6
  %16 = landingpad { ptr, i32 }
          cleanup
  call void @llvm.lifetime.end.p0(i64 4, ptr nonnull %2) #14
  br label %17

17:                                               ; preds = %15, %13
  %.pn = phi { ptr, i32 } [ %16, %15 ], [ %14, %13 ]
  call void @_ZN6icu_7711MeasureUnitD2Ev(ptr noundef nonnull align 8 dereferenceable(19) %0) #14
  resume { ptr, i32 } %.pn
}